; ModuleID = 'source-C-CXX/8/1403.c'
source_filename = "source-C-CXX/8/1403.c"
target datalayout = "e-m:e-p270:32:32-p271:32:32-p272:64:64-i64:64-f80:128-n8:16:32:64-S128"
target triple = "x86_64-pc-linux-gnu"

@.str = private unnamed_addr constant [3 x i8] c"%d\00", align 1
@.str.1 = private unnamed_addr constant [6 x i8] c"%s %d\00", align 1

; Function Attrs: nofree nounwind sspstrong uwtable
define dso_local i32 @main() local_unnamed_addr #0 {
  %1 = alloca i32, align 4
  %2 = alloca [100 x [10 x i8]], align 16
  %3 = alloca [11 x i8], align 1
  %4 = alloca [100 x i32], align 16
  %5 = bitcast i32* %1 to i8*
  call void @llvm.lifetime.start.p0i8(i64 4, i8* nonnull %5) #5
  %6 = call i32 (i8*, ...) @__isoc99_scanf(i8* getelementptr inbounds ([3 x i8], [3 x i8]* @.str, i64 0, i64 0), i32* nonnull %1)
  %7 = getelementptr inbounds [100 x [10 x i8]], [100 x [10 x i8]]* %2, i64 0, i64 0, i64 0
  call void @llvm.lifetime.start.p0i8(i64 1000, i8* nonnull %7) #5
  %8 = getelementptr inbounds [11 x i8], [11 x i8]* %3, i64 0, i64 0
  call void @llvm.lifetime.start.p0i8(i64 11, i8* nonnull %8) #5
  %9 = bitcast [100 x i32]* %4 to i8*
  call void @llvm.lifetime.start.p0i8(i64 400, i8* nonnull %9) #5
  %10 = load i32, i32* %1, align 4, !tbaa !5
  %11 = icmp sgt i32 %10, 0
  br i1 %11, label %16, label %67

12:                                               ; preds = %24
  %13 = icmp slt i32 %26, 1
  br i1 %13, label %67, label %14

14:                                               ; preds = %12
  %15 = getelementptr inbounds [100 x i32], [100 x i32]* %4, i64 0, i64 0
  br label %29

16:                                               ; preds = %0, %24
  %17 = phi i64 [ %25, %24 ], [ 0, %0 ]
  %18 = getelementptr inbounds [100 x [10 x i8]], [100 x [10 x i8]]* %2, i64 0, i64 %17, i64 0
  %19 = getelementptr inbounds [100 x i32], [100 x i32]* %4, i64 0, i64 %17
  %20 = call i32 (i8*, ...) @__isoc99_scanf(i8* getelementptr inbounds ([6 x i8], [6 x i8]* @.str.1, i64 0, i64 0), i8* nonnull %18, i32* nonnull %19)
  %21 = load i32, i32* %19, align 4, !tbaa !5
  %22 = icmp slt i32 %21, 60
  br i1 %22, label %23, label %24

23:                                               ; preds = %16
  store i32 0, i32* %19, align 4, !tbaa !5
  br label %24

24:                                               ; preds = %16, %23
  %25 = add nuw nsw i64 %17, 1
  %26 = load i32, i32* %1, align 4, !tbaa !5
  %27 = sext i32 %26 to i64
  %28 = icmp slt i64 %25, %27
  br i1 %28, label %16, label %12, !llvm.loop !9

29:                                               ; preds = %14, %56
  %30 = phi i32 [ %26, %14 ], [ %32, %56 ]
  %31 = phi i32 [ 1, %14 ], [ %57, %56 ]
  %32 = add i32 %30, -1
  %33 = icmp sgt i32 %26, %31
  br i1 %33, label %34, label %56

34:                                               ; preds = %29
  %35 = zext i32 %32 to i64
  %36 = load i32, i32* %15, align 16, !tbaa !5
  br label %39

37:                                               ; preds = %56
  %38 = icmp sgt i32 %26, 0
  br i1 %38, label %59, label %67

39:                                               ; preds = %34, %53
  %40 = phi i32 [ %36, %34 ], [ %54, %53 ]
  %41 = phi i64 [ 0, %34 ], [ %42, %53 ]
  %42 = add nuw nsw i64 %41, 1
  %43 = getelementptr inbounds [100 x i32], [100 x i32]* %4, i64 0, i64 %42
  %44 = load i32, i32* %43, align 4, !tbaa !5
  %45 = icmp slt i32 %40, %44
  br i1 %45, label %46, label %53

46:                                               ; preds = %39
  %47 = getelementptr inbounds [100 x i32], [100 x i32]* %4, i64 0, i64 %41
  store i32 %44, i32* %47, align 4, !tbaa !5
  store i32 %40, i32* %43, align 4, !tbaa !5
  %48 = getelementptr inbounds [100 x [10 x i8]], [100 x [10 x i8]]* %2, i64 0, i64 %41, i64 0
  %49 = call i8* @strcpy(i8* noundef nonnull %8, i8* noundef nonnull %48) #5
  %50 = getelementptr inbounds [100 x [10 x i8]], [100 x [10 x i8]]* %2, i64 0, i64 %42, i64 0
  %51 = call i8* @strcpy(i8* noundef nonnull %48, i8* noundef nonnull %50) #5
  %52 = call i8* @strcpy(i8* noundef nonnull %50, i8* noundef nonnull %8) #5
  br label %53

53:                                               ; preds = %39, %46
  %54 = phi i32 [ %44, %39 ], [ %40, %46 ]
  %55 = icmp eq i64 %42, %35
  br i1 %55, label %56, label %39, !llvm.loop !11

56:                                               ; preds = %53, %29
  %57 = add nuw i32 %31, 1
  %58 = icmp eq i32 %31, %26
  br i1 %58, label %37, label %29, !llvm.loop !12

59:                                               ; preds = %37, %59
  %60 = phi i64 [ %63, %59 ], [ 0, %37 ]
  %61 = getelementptr inbounds [100 x [10 x i8]], [100 x [10 x i8]]* %2, i64 0, i64 %60, i64 0
  %62 = call i32 @puts(i8* nonnull %61)
  %63 = add nuw nsw i64 %60, 1
  %64 = load i32, i32* %1, align 4, !tbaa !5
  %65 = sext i32 %64 to i64
  %66 = icmp slt i64 %63, %65
  br i1 %66, label %59, label %67, !llvm.loop !13

67:                                               ; preds = %59, %0, %12, %37
  call void @llvm.lifetime.end.p0i8(i64 400, i8* nonnull %9) #5
  call void @llvm.lifetime.end.p0i8(i64 11, i8* nonnull %8) #5
  call void @llvm.lifetime.end.p0i8(i64 1000, i8* nonnull %7) #5
  call void @llvm.lifetime.end.p0i8(i64 4, i8* nonnull %5) #5
  ret i32 0
}

; Function Attrs: argmemonly mustprogress nofree nosync nounwind willreturn
declare void @llvm.lifetime.start.p0i8(i64 immarg, i8* nocapture) #1

; Function Attrs: nofree nounwind
declare noundef i32 @__isoc99_scanf(i8* nocapture noundef readonly, ...) local_unnamed_addr #2

; Function Attrs: argmemonly mustprogress nofree nounwind willreturn
declare i8* @strcpy(i8* noalias returned writeonly, i8* noalias nocapture readonly) local_unnamed_addr #3

; Function Attrs: argmemonly mustprogress nofree nosync nounwind willreturn
declare void @llvm.lifetime.end.p0i8(i64 immarg, i8* nocapture) #1

; Function Attrs: nofree nounwind
declare noundef i32 @puts(i8* nocapture noundef readonly) local_unnamed_addr #4


!llvm.module.flags = !{!0, !1, !2, !3}
!llvm.ident = !{!4}

!0 = !{i32 1, !"wchar_size", i32 4}
!1 = !{i32 7, !"PIC Level", i32 2}
!2 = !{i32 7, !"PIE Level", i32 2}
!3 = !{i32 7, !"uwtable", i32 1}
!4 = !{!"clang version 13.0.0"}
!5 = !{!6, !6, i64 0}
!6 = !{!"int", !7, i64 0}
!7 = !{!"omnipotent char", !8, i64 0}
!8 = !{!"Simple C/C++ TBAA"}
!9 = distinct !{!9, !10}
!10 = !{!"llvm.loop.mustprogress"}
!11 = distinct !{!11, !10}
!12 = distinct !{!12, !10}
!13 = distinct !{!13, !10}
